Certificate:
    Data:
        Version: 3 (0x2)
        Serial Number: 6 (0x6)
        Signature Algorithm: md5WithRSAEncryption
        Issuer: C=NL, O=PolarSSL, CN=PolarSSL Test CA
        Validity
            Not Before: Feb 12 14:44:07 2011 GMT
            Not After : Feb 12 14:44:07 2021 GMT
        Subject: C=NL, O=PolarSSL, CN=PolarSSL Cert MD5
        Subject Public Key Info:
            Public Key Algorithm: rsaEncryption
            RSA Public Key: (2048 bit)
                Modulus (2048 bit):
                    00:b9:3c:4a:c5:c8:a3:8e:90:17:a4:9e:52:aa:71:
                    75:26:61:80:e7:c7:b5:6d:8c:ff:aa:b6:41:26:b7:
                    be:11:ad:5c:73:16:0c:64:11:48:04:ff:d6:e1:3b:
                    05:db:89:bb:b3:97:09:d5:1c:14:dd:68:87:39:b0:
                    3d:71:cb:e2:76:d0:1a:d8:18:2d:80:1b:54:f6:e5:
                    44:9a:f1:cb:af:61:2e:df:49:0d:9d:09:b7:ed:b1:
                    fd:3c:fd:3c:fa:24:cf:5d:bf:7c:e4:53:e7:25:b5:
                    ea:44:22:e9:26:d3:ea:20:94:9e:e6:61:67:ba:2e:
                    07:67:0b:03:2f:a2:09:ed:f0:33:8f:0b:ce:10:ef:
                    67:a4:c6:08:da:c1:ed:c2:3f:d7:4a:dd:15:3d:f9:
                    5e:1c:81:60:46:3e:b5:b3:3d:2f:a6:de:47:1c:bc:
                    92:ae:eb:df:27:6b:16:56:b7:dc:ec:d1:55:57:a5:
                    6e:ec:75:25:f5:b7:7b:df:ab:d2:3a:5a:91:98:7d:
                    97:17:0b:13:0a:a7:6b:4a:8b:c1:47:30:fb:3a:f8:
                    41:04:d5:c1:df:b8:1d:bf:7b:01:a5:65:a2:e0:1e:
                    36:b7:a6:5c:cc:30:5a:f8:cd:6f:cd:f1:19:62:25:
                    ca:01:e3:35:7f:fa:20:f5:dc:fd:69:b2:6a:00:7d:
                    17:f7
                Exponent: 65537 (0x10001)
        X509v3 extensions:
            X509v3 Basic Constraints: 
                CA:FALSE
            X509v3 Subject Key Identifier: 
                7D:E4:9C:6B:E6:F9:71:7D:46:D2:12:3D:AD:6B:1D:FD:C2:AA:78:4C
            X509v3 Authority Key Identifier: 
                keyid:B4:5A:E4:A5:B3:DE:D2:52:F6:B9:D5:A6:95:0F:EB:3E:BC:C7:FD:FF

    Signature Algorithm: md5WithRSAEncryption
        92:13:81:0c:ff:ac:ab:98:52:6c:28:c9:c6:3e:80:c6:ec:77:
        d0:13:e1:a2:29:1d:2f:b7:c5:95:41:83:60:d9:50:9c:d0:d6:
        09:f7:0f:97:cd:c0:e6:b2:68:fa:31:c9:2a:a3:d3:1e:53:ae:
        79:dc:35:ba:b0:d9:e5:7a:37:1b:2a:92:fa:d2:59:90:43:1b:
        6a:91:c1:db:36:da:e9:39:d3:f5:ac:e3:46:01:ca:55:04:17:
        1a:b1:97:28:e8:ff:1b:e7:e1:10:c9:b5:31:d8:ce:a6:89:6a:
        4a:df:78:7b:02:2f:83:b3:41:d5:ef:0b:b6:44:ff:32:a6:cf:
        1b:c2:f4:b0:75:66:a9:da:6f:7c:a5:e3:c6:c1:3a:2f:bf:f8:
        12:6f:04:2c:37:f2:4e:fc:b9:09:ff:a4:5b:40:19:e9:58:91:
        64:82:d6:ad:b9:7f:c0:12:c2:ce:b7:b6:ba:fb:10:a2:3f:74:
        97:10:39:d4:dc:4a:e5:5c:f7:e5:3a:d9:68:d7:17:6b:f5:51:
        08:b4:a2:30:0d:cc:36:10:6d:4e:1d:22:cc:48:d1:38:44:ba:
        cc:2b:47:99:f7:c6:8b:41:24:f3:f1:2c:10:1a:f2:88:bb:b2:
        e0:fd:44:26:3d:ad:ea:af:1d:d0:00:56:41:4e:f4:b0:3b:9d:
        32:6f:48:c7
-----BEGIN CERTIFICATE-----
MIIDPzCCAiegAwIBAgIBBjANBgkqhkiG9w0BAQQFADA7MQswCQYDVQQGEwJOTDER
MA8GA1UEChMIUG9sYXJTU0wxGTAXBgNVBAMTEFBvbGFyU1NMIFRlc3QgQ0EwHhcN
MTEwMjEyMTQ0NDA3WhcNMjEwMjEyMTQ0NDA3WjA8MQswCQYDVQQGEwJOTDERMA8G
A1UEChMIUG9sYXJTU0wxGjAYBgNVBAMTEVBvbGFyU1NMIENlcnQgTUQ1MIIBIjAN
BgkqhkiG9w0BAQEFAAOCAQ8AMIIBCgKCAQEAuTxKxcijjpAXpJ5SqnF1JmGA58e1
bYz/qrZBJre+Ea1ccxYMZBFIBP/W4TsF24m7s5cJ1RwU3WiHObA9ccvidtAa2Bgt
gBtU9uVEmvHLr2Eu30kNnQm37bH9PP08+iTPXb985FPnJbXqRCLpJtPqIJSe5mFn
ui4HZwsDL6IJ7fAzjwvOEO9npMYI2sHtwj/XSt0VPfleHIFgRj61sz0vpt5HHLyS
ruvfJ2sWVrfc7NFVV6Vu7HUl9bd736vSOlqRmH2XFwsTCqdrSovBRzD7OvhBBNXB
37gdv3sBpWWi4B42t6ZczDBa+M1vzfEZYiXKAeM1f/og9dz9abJqAH0X9wIDAQAB
o00wSzAJBgNVHRMEAjAAMB0GA1UdDgQWBBR95Jxr5vlxfUbSEj2tax39wqp4TDAf
BgNVHSMEGDAWgBS0WuSls97SUva51aaVD+s+vMf9/zANBgkqhkiG9w0BAQQFAAOC
AQEAkhOBDP+sq5hSbCjJxj6Axux30BPhoikdL7fFlUGDYNlQnNDWCfcPl83A5rJo
+jHJKqPTHlOuedw1urDZ5Xo3GyqS+tJZkEMbapHB2zba6TnT9azjRgHKVQQXGrGX
KOj/G+fhEMm1MdjOpolqSt94ewIvg7NB1e8LtkT/MqbPG8L0sHVmqdpvfKXjxsE6
L7/4Em8ELDfyTvy5Cf+kW0AZ6ViRZILWrbl/wBLCzre2uvsQoj90lxA51NxK5Vz3
5TrZaNcXa/VRCLSiMA3MNhBtTh0izEjROES6zCtHmffGi0Ek8/EsEBryiLuy4P1E
Jj2t6q8d0ABWQU70sDudMm9Ixw==
-----END CERTIFICATE-----
