Certificate:
    Data:
        Version: 3 (0x2)
        Serial Number: 12 (0xc)
        Signature Algorithm: sha1WithRSAEncryption
        Issuer: C=NL, O=PolarSSL, CN=PolarSSL Test CA
        Validity
            Not Before: Feb  7 16:06:36 2012 GMT
            Not After : Feb  7 16:06:36 2022 GMT
        Subject: C=NL, O=PolarSSL, CN=*.example.com
        Subject Public Key Info:
            Public Key Algorithm: rsaEncryption
                Public-Key: (2048 bit)
                Modulus:
                    00:b9:3c:4a:c5:c8:a3:8e:90:17:a4:9e:52:aa:71:
                    75:26:61:80:e7:c7:b5:6d:8c:ff:aa:b6:41:26:b7:
                    be:11:ad:5c:73:16:0c:64:11:48:04:ff:d6:e1:3b:
                    05:db:89:bb:b3:97:09:d5:1c:14:dd:68:87:39:b0:
                    3d:71:cb:e2:76:d0:1a:d8:18:2d:80:1b:54:f6:e5:
                    44:9a:f1:cb:af:61:2e:df:49:0d:9d:09:b7:ed:b1:
                    fd:3c:fd:3c:fa:24:cf:5d:bf:7c:e4:53:e7:25:b5:
                    ea:44:22:e9:26:d3:ea:20:94:9e:e6:61:67:ba:2e:
                    07:67:0b:03:2f:a2:09:ed:f0:33:8f:0b:ce:10:ef:
                    67:a4:c6:08:da:c1:ed:c2:3f:d7:4a:dd:15:3d:f9:
                    5e:1c:81:60:46:3e:b5:b3:3d:2f:a6:de:47:1c:bc:
                    92:ae:eb:df:27:6b:16:56:b7:dc:ec:d1:55:57:a5:
                    6e:ec:75:25:f5:b7:7b:df:ab:d2:3a:5a:91:98:7d:
                    97:17:0b:13:0a:a7:6b:4a:8b:c1:47:30:fb:3a:f8:
                    41:04:d5:c1:df:b8:1d:bf:7b:01:a5:65:a2:e0:1e:
                    36:b7:a6:5c:cc:30:5a:f8:cd:6f:cd:f1:19:62:25:
                    ca:01:e3:35:7f:fa:20:f5:dc:fd:69:b2:6a:00:7d:
                    17:f7
                Exponent: 65537 (0x10001)
        X509v3 extensions:
            X509v3 Basic Constraints: 
                CA:FALSE
            X509v3 Subject Key Identifier: 
                7D:E4:9C:6B:E6:F9:71:7D:46:D2:12:3D:AD:6B:1D:FD:C2:AA:78:4C
            X509v3 Authority Key Identifier: 
                keyid:B4:5A:E4:A5:B3:DE:D2:52:F6:B9:D5:A6:95:0F:EB:3E:BC:C7:FD:FF

    Signature Algorithm: sha1WithRSAEncryption
        91:b3:84:5c:5d:60:f2:a5:0a:4a:dc:d6:c6:75:da:34:52:72:
        6c:0e:60:4f:ef:0e:55:f3:4b:bf:d0:40:e7:91:2c:a7:94:8f:
        3d:db:0a:ec:b2:f5:83:a7:a1:33:61:96:37:57:14:80:5b:e7:
        bc:e1:d3:2c:36:32:6f:ef:7a:00:99:33:15:fc:38:20:df:74:
        7d:3d:0f:81:d0:b4:fd:b6:46:f1:c5:b8:bc:de:74:a2:41:a7:
        c8:51:da:20:12:82:3e:0c:8c:48:da:19:b6:52:e9:4f:67:c1:
        28:9e:20:b6:ce:be:89:bd:64:d7:05:3e:87:af:ba:2b:5d:aa:
        fe:62:66:fb:a6:75:ad:89:a1:18:e8:78:54:ea:df:0a:85:e9:
        32:32:a8:1a:cd:35:81:f8:a8:da:d1:16:8a:63:e7:67:da:6e:
        e1:3b:1c:31:20:99:ee:e2:b2:fb:82:c5:21:e2:63:4c:61:15:
        4d:53:ad:dd:15:7f:0b:b6:33:43:ad:27:8a:b1:af:93:17:72:
        c4:be:31:26:93:3c:7d:fc:d5:3d:cf:0b:be:c5:7b:e9:b4:f8:
        f3:30:f2:f5:a2:27:eb:9a:71:fc:7f:79:5e:88:c5:a6:2d:33:
        57:ba:38:06:e6:ad:0b:96:97:9d:cc:94:7b:83:09:17:a6:ee:
        ce:bb:0f:36
-----BEGIN CERTIFICATE-----
MIIDOzCCAiOgAwIBAgIBDDANBgkqhkiG9w0BAQUFADA7MQswCQYDVQQGEwJOTDER
MA8GA1UEChMIUG9sYXJTU0wxGTAXBgNVBAMTEFBvbGFyU1NMIFRlc3QgQ0EwHhcN
MTIwMjA3MTYwNjM2WhcNMjIwMjA3MTYwNjM2WjA4MQswCQYDVQQGEwJOTDERMA8G
A1UEChMIUG9sYXJTU0wxFjAUBgNVBAMUDSouZXhhbXBsZS5jb20wggEiMA0GCSqG
SIb3DQEBAQUAA4IBDwAwggEKAoIBAQC5PErFyKOOkBeknlKqcXUmYYDnx7VtjP+q
tkEmt74RrVxzFgxkEUgE/9bhOwXbibuzlwnVHBTdaIc5sD1xy+J20BrYGC2AG1T2
5USa8cuvYS7fSQ2dCbftsf08/Tz6JM9dv3zkU+cltepEIukm0+oglJ7mYWe6Lgdn
CwMvognt8DOPC84Q72ekxgjawe3CP9dK3RU9+V4cgWBGPrWzPS+m3kccvJKu698n
axZWt9zs0VVXpW7sdSX1t3vfq9I6WpGYfZcXCxMKp2tKi8FHMPs6+EEE1cHfuB2/
ewGlZaLgHja3plzMMFr4zW/N8RliJcoB4zV/+iD13P1psmoAfRf3AgMBAAGjTTBL
MAkGA1UdEwQCMAAwHQYDVR0OBBYEFH3knGvm+XF9RtISPa1rHf3CqnhMMB8GA1Ud
IwQYMBaAFLRa5KWz3tJS9rnVppUP6z68x/3/MA0GCSqGSIb3DQEBBQUAA4IBAQCR
s4RcXWDypQpK3NbGddo0UnJsDmBP7w5V80u/0EDnkSynlI892wrssvWDp6EzYZY3
VxSAW+e84dMsNjJv73oAmTMV/Dgg33R9PQ+B0LT9tkbxxbi83nSiQafIUdogEoI+
DIxI2hm2UulPZ8EoniC2zr6JvWTXBT6Hr7orXar+Ymb7pnWtiaEY6HhU6t8Kheky
MqgazTWB+Kja0RaKY+dn2m7hOxwxIJnu4rL7gsUh4mNMYRVNU63dFX8LtjNDrSeK
sa+TF3LEvjEmkzx9/NU9zwu+xXvptPjzMPL1oifrmnH8f3leiMWmLTNXujgG5q0L
lpedzJR7gwkXpu7Ouw82
-----END CERTIFICATE-----
