Certificate:
    Data:
        Version: 3 (0x2)
        Serial Number: 5 (0x5)
        Signature Algorithm: md4WithRSAEncryption
        Issuer: C=NL, O=PolarSSL, CN=PolarSSL Test CA
        Validity
            Not Before: Feb 12 14:44:07 2011 GMT
            Not After : Feb 12 14:44:07 2021 GMT
        Subject: C=NL, O=PolarSSL, CN=PolarSSL Cert MD4
        Subject Public Key Info:
            Public Key Algorithm: rsaEncryption
            RSA Public Key: (2048 bit)
                Modulus (2048 bit):
                    00:b9:3c:4a:c5:c8:a3:8e:90:17:a4:9e:52:aa:71:
                    75:26:61:80:e7:c7:b5:6d:8c:ff:aa:b6:41:26:b7:
                    be:11:ad:5c:73:16:0c:64:11:48:04:ff:d6:e1:3b:
                    05:db:89:bb:b3:97:09:d5:1c:14:dd:68:87:39:b0:
                    3d:71:cb:e2:76:d0:1a:d8:18:2d:80:1b:54:f6:e5:
                    44:9a:f1:cb:af:61:2e:df:49:0d:9d:09:b7:ed:b1:
                    fd:3c:fd:3c:fa:24:cf:5d:bf:7c:e4:53:e7:25:b5:
                    ea:44:22:e9:26:d3:ea:20:94:9e:e6:61:67:ba:2e:
                    07:67:0b:03:2f:a2:09:ed:f0:33:8f:0b:ce:10:ef:
                    67:a4:c6:08:da:c1:ed:c2:3f:d7:4a:dd:15:3d:f9:
                    5e:1c:81:60:46:3e:b5:b3:3d:2f:a6:de:47:1c:bc:
                    92:ae:eb:df:27:6b:16:56:b7:dc:ec:d1:55:57:a5:
                    6e:ec:75:25:f5:b7:7b:df:ab:d2:3a:5a:91:98:7d:
                    97:17:0b:13:0a:a7:6b:4a:8b:c1:47:30:fb:3a:f8:
                    41:04:d5:c1:df:b8:1d:bf:7b:01:a5:65:a2:e0:1e:
                    36:b7:a6:5c:cc:30:5a:f8:cd:6f:cd:f1:19:62:25:
                    ca:01:e3:35:7f:fa:20:f5:dc:fd:69:b2:6a:00:7d:
                    17:f7
                Exponent: 65537 (0x10001)
        X509v3 extensions:
            X509v3 Basic Constraints: 
                CA:FALSE
            X509v3 Subject Key Identifier: 
                7D:E4:9C:6B:E6:F9:71:7D:46:D2:12:3D:AD:6B:1D:FD:C2:AA:78:4C
            X509v3 Authority Key Identifier: 
                keyid:B4:5A:E4:A5:B3:DE:D2:52:F6:B9:D5:A6:95:0F:EB:3E:BC:C7:FD:FF

    Signature Algorithm: md4WithRSAEncryption
        94:db:e1:86:71:2d:43:d6:51:61:a7:95:bc:e8:73:da:ff:e4:
        fd:41:0f:5c:de:14:f4:c4:ba:5d:2c:30:2c:a6:dc:2d:e8:87:
        45:f1:c5:fe:d1:4a:64:99:19:09:2f:72:7c:3f:8d:c8:31:22:
        dd:0a:69:03:3d:12:8c:4d:c3:f7:a3:c5:d1:5d:c9:ff:4b:83:
        6b:d6:b4:e5:d8:ce:94:5e:ec:bf:68:c5:b2:63:8e:5c:cb:f3:
        8d:62:73:82:62:7e:df:db:7d:0b:8d:21:10:db:9a:a1:62:4d:
        46:42:d1:bb:38:32:ef:c1:fc:a1:e2:7f:60:08:37:32:20:2c:
        7c:a2:c9:12:0d:89:fe:2b:15:08:91:79:e2:a9:79:a4:da:cd:
        81:43:01:e2:09:2d:1a:f4:16:ef:af:4d:50:46:5e:2d:dd:48:
        27:10:c0:42:b7:a5:9e:c2:1f:6e:50:36:03:ed:95:77:9a:a3:
        d9:4c:d7:23:93:b1:24:2a:63:27:28:7a:de:3d:59:d2:92:c8:
        8f:f6:39:1d:65:ab:09:78:05:46:90:a9:f6:10:b1:ef:c8:8c:
        4d:7d:8d:f2:78:b7:88:15:09:7e:df:e9:87:a8:64:c1:95:53:
        fb:da:05:b7:62:bc:ad:fb:d9:a4:a9:06:6c:6b:98:01:b9:39:
        78:d3:4e:87
-----BEGIN CERTIFICATE-----
MIIDPzCCAiegAwIBAgIBBTANBgkqhkiG9w0BAQMFADA7MQswCQYDVQQGEwJOTDER
MA8GA1UEChMIUG9sYXJTU0wxGTAXBgNVBAMTEFBvbGFyU1NMIFRlc3QgQ0EwHhcN
MTEwMjEyMTQ0NDA3WhcNMjEwMjEyMTQ0NDA3WjA8MQswCQYDVQQGEwJOTDERMA8G
A1UEChMIUG9sYXJTU0wxGjAYBgNVBAMTEVBvbGFyU1NMIENlcnQgTUQ0MIIBIjAN
BgkqhkiG9w0BAQEFAAOCAQ8AMIIBCgKCAQEAuTxKxcijjpAXpJ5SqnF1JmGA58e1
bYz/qrZBJre+Ea1ccxYMZBFIBP/W4TsF24m7s5cJ1RwU3WiHObA9ccvidtAa2Bgt
gBtU9uVEmvHLr2Eu30kNnQm37bH9PP08+iTPXb985FPnJbXqRCLpJtPqIJSe5mFn
ui4HZwsDL6IJ7fAzjwvOEO9npMYI2sHtwj/XSt0VPfleHIFgRj61sz0vpt5HHLyS
ruvfJ2sWVrfc7NFVV6Vu7HUl9bd736vSOlqRmH2XFwsTCqdrSovBRzD7OvhBBNXB
37gdv3sBpWWi4B42t6ZczDBa+M1vzfEZYiXKAeM1f/og9dz9abJqAH0X9wIDAQAB
o00wSzAJBgNVHRMEAjAAMB0GA1UdDgQWBBR95Jxr5vlxfUbSEj2tax39wqp4TDAf
BgNVHSMEGDAWgBS0WuSls97SUva51aaVD+s+vMf9/zANBgkqhkiG9w0BAQMFAAOC
AQEAlNvhhnEtQ9ZRYaeVvOhz2v/k/UEPXN4U9MS6XSwwLKbcLeiHRfHF/tFKZJkZ
CS9yfD+NyDEi3QppAz0SjE3D96PF0V3J/0uDa9a05djOlF7sv2jFsmOOXMvzjWJz
gmJ+39t9C40hENuaoWJNRkLRuzgy78H8oeJ/YAg3MiAsfKLJEg2J/isVCJF54ql5
pNrNgUMB4gktGvQW769NUEZeLd1IJxDAQrelnsIfblA2A+2Vd5qj2UzXI5OxJCpj
Jyh63j1Z0pLIj/Y5HWWrCXgFRpCp9hCx78iMTX2N8ni3iBUJft/ph6hkwZVT+9oF
t2K8rfvZpKkGbGuYAbk5eNNOhw==
-----END CERTIFICATE-----
