Certificate:
    Data:
        Version: 3 (0x2)
        Serial Number: 7 (0x7)
        Signature Algorithm: sha1WithRSAEncryption
        Issuer: C=NL, O=PolarSSL, CN=PolarSSL Test CA
        Validity
            Not Before: Feb 12 14:44:07 2011 GMT
            Not After : Feb 12 14:44:07 2021 GMT
        Subject: C=NL, O=PolarSSL, CN=PolarSSL Cert SHA1
        Subject Public Key Info:
            Public Key Algorithm: rsaEncryption
            RSA Public Key: (2048 bit)
                Modulus (2048 bit):
                    00:b9:3c:4a:c5:c8:a3:8e:90:17:a4:9e:52:aa:71:
                    75:26:61:80:e7:c7:b5:6d:8c:ff:aa:b6:41:26:b7:
                    be:11:ad:5c:73:16:0c:64:11:48:04:ff:d6:e1:3b:
                    05:db:89:bb:b3:97:09:d5:1c:14:dd:68:87:39:b0:
                    3d:71:cb:e2:76:d0:1a:d8:18:2d:80:1b:54:f6:e5:
                    44:9a:f1:cb:af:61:2e:df:49:0d:9d:09:b7:ed:b1:
                    fd:3c:fd:3c:fa:24:cf:5d:bf:7c:e4:53:e7:25:b5:
                    ea:44:22:e9:26:d3:ea:20:94:9e:e6:61:67:ba:2e:
                    07:67:0b:03:2f:a2:09:ed:f0:33:8f:0b:ce:10:ef:
                    67:a4:c6:08:da:c1:ed:c2:3f:d7:4a:dd:15:3d:f9:
                    5e:1c:81:60:46:3e:b5:b3:3d:2f:a6:de:47:1c:bc:
                    92:ae:eb:df:27:6b:16:56:b7:dc:ec:d1:55:57:a5:
                    6e:ec:75:25:f5:b7:7b:df:ab:d2:3a:5a:91:98:7d:
                    97:17:0b:13:0a:a7:6b:4a:8b:c1:47:30:fb:3a:f8:
                    41:04:d5:c1:df:b8:1d:bf:7b:01:a5:65:a2:e0:1e:
                    36:b7:a6:5c:cc:30:5a:f8:cd:6f:cd:f1:19:62:25:
                    ca:01:e3:35:7f:fa:20:f5:dc:fd:69:b2:6a:00:7d:
                    17:f7
                Exponent: 65537 (0x10001)
        X509v3 extensions:
            X509v3 Basic Constraints: 
                CA:FALSE
            X509v3 Subject Key Identifier: 
                7D:E4:9C:6B:E6:F9:71:7D:46:D2:12:3D:AD:6B:1D:FD:C2:AA:78:4C
            X509v3 Authority Key Identifier: 
                keyid:B4:5A:E4:A5:B3:DE:D2:52:F6:B9:D5:A6:95:0F:EB:3E:BC:C7:FD:FF

    Signature Algorithm: sha1WithRSAEncryption
        93:26:40:68:3d:e7:62:ea:d1:6a:78:2b:c2:07:f3:0d:3b:f6:
        69:18:cd:08:5e:31:e7:48:60:08:2a:46:b6:de:d1:35:0a:ec:
        31:36:83:7d:eb:7c:d8:63:09:c3:e4:c5:10:ca:7c:7b:2f:20:
        4d:d2:0e:5f:ee:09:e3:84:4f:28:cc:08:74:9a:11:23:5f:de:
        0e:3a:0f:8b:2d:64:91:05:f6:d5:c7:30:c8:20:ee:6c:c4:62:
        7c:8d:a8:4d:2e:70:8c:ac:b5:5d:de:9b:10:5c:98:fd:a1:78:
        9b:9c:f0:73:33:de:2f:8c:59:fa:dc:af:4c:df:97:e3:9d:00:
        37:9a:fa:d3:67:77:b9:2f:b9:4a:23:ad:f9:b4:a1:b7:ac:c5:
        a8:0f:62:8c:e6:7e:b4:94:2a:db:f2:fc:52:92:a4:9e:4e:51:
        4f:9d:c0:ce:ae:3d:17:1c:94:6c:5f:e8:16:b5:ce:2e:e2:5a:
        cf:6a:db:dd:b0:d4:be:62:a5:46:92:30:7c:7c:fc:05:f8:78:
        30:93:30:28:ab:69:a1:72:31:dc:3b:97:63:3a:5b:b3:e1:34:
        86:80:4a:28:f5:dc:d5:84:8c:13:a4:6c:d2:c1:2d:a6:25:d7:
        6f:c9:93:78:a5:16:ba:d9:17:6e:3e:ca:96:f2:9e:5c:e3:ae:
        12:2e:a5:11
-----BEGIN CERTIFICATE-----
MIIDQDCCAiigAwIBAgIBBzANBgkqhkiG9w0BAQUFADA7MQswCQYDVQQGEwJOTDER
MA8GA1UEChMIUG9sYXJTU0wxGTAXBgNVBAMTEFBvbGFyU1NMIFRlc3QgQ0EwHhcN
MTEwMjEyMTQ0NDA3WhcNMjEwMjEyMTQ0NDA3WjA9MQswCQYDVQQGEwJOTDERMA8G
A1UEChMIUG9sYXJTU0wxGzAZBgNVBAMTElBvbGFyU1NMIENlcnQgU0hBMTCCASIw
DQYJKoZIhvcNAQEBBQADggEPADCCAQoCggEBALk8SsXIo46QF6SeUqpxdSZhgOfH
tW2M/6q2QSa3vhGtXHMWDGQRSAT/1uE7BduJu7OXCdUcFN1ohzmwPXHL4nbQGtgY
LYAbVPblRJrxy69hLt9JDZ0Jt+2x/Tz9PPokz12/fORT5yW16kQi6SbT6iCUnuZh
Z7ouB2cLAy+iCe3wM48LzhDvZ6TGCNrB7cI/10rdFT35XhyBYEY+tbM9L6beRxy8
kq7r3ydrFla33OzRVVelbux1JfW3e9+r0jpakZh9lxcLEwqna0qLwUcw+zr4QQTV
wd+4Hb97AaVlouAeNremXMwwWvjNb83xGWIlygHjNX/6IPXc/WmyagB9F/cCAwEA
AaNNMEswCQYDVR0TBAIwADAdBgNVHQ4EFgQUfeSca+b5cX1G0hI9rWsd/cKqeEww
HwYDVR0jBBgwFoAUtFrkpbPe0lL2udWmlQ/rPrzH/f8wDQYJKoZIhvcNAQEFBQAD
ggEBAJMmQGg952Lq0Wp4K8IH8w079mkYzQheMedIYAgqRrbe0TUK7DE2g33rfNhj
CcPkxRDKfHsvIE3SDl/uCeOETyjMCHSaESNf3g46D4stZJEF9tXHMMgg7mzEYnyN
qE0ucIystV3emxBcmP2heJuc8HMz3i+MWfrcr0zfl+OdADea+tNnd7kvuUojrfm0
obesxagPYozmfrSUKtvy/FKSpJ5OUU+dwM6uPRcclGxf6Ba1zi7iWs9q292w1L5i
pUaSMHx8/AX4eDCTMCiraaFyMdw7l2M6W7PhNIaASij13NWEjBOkbNLBLaYl12/J
k3ilFrrZF24+ypbynlzjrhIupRE=
-----END CERTIFICATE-----
