Certificate:
    Data:
        Version: 3 (0x2)
        Serial Number: 9 (0x9)
        Signature Algorithm: sha256WithRSAEncryption
        Issuer: C=NL, O=PolarSSL, CN=PolarSSL Test CA
        Validity
            Not Before: Feb 12 14:44:07 2011 GMT
            Not After : Feb 12 14:44:07 2021 GMT
        Subject: C=NL, O=PolarSSL, CN=PolarSSL Cert SHA256
        Subject Public Key Info:
            Public Key Algorithm: rsaEncryption
            RSA Public Key: (2048 bit)
                Modulus (2048 bit):
                    00:b9:3c:4a:c5:c8:a3:8e:90:17:a4:9e:52:aa:71:
                    75:26:61:80:e7:c7:b5:6d:8c:ff:aa:b6:41:26:b7:
                    be:11:ad:5c:73:16:0c:64:11:48:04:ff:d6:e1:3b:
                    05:db:89:bb:b3:97:09:d5:1c:14:dd:68:87:39:b0:
                    3d:71:cb:e2:76:d0:1a:d8:18:2d:80:1b:54:f6:e5:
                    44:9a:f1:cb:af:61:2e:df:49:0d:9d:09:b7:ed:b1:
                    fd:3c:fd:3c:fa:24:cf:5d:bf:7c:e4:53:e7:25:b5:
                    ea:44:22:e9:26:d3:ea:20:94:9e:e6:61:67:ba:2e:
                    07:67:0b:03:2f:a2:09:ed:f0:33:8f:0b:ce:10:ef:
                    67:a4:c6:08:da:c1:ed:c2:3f:d7:4a:dd:15:3d:f9:
                    5e:1c:81:60:46:3e:b5:b3:3d:2f:a6:de:47:1c:bc:
                    92:ae:eb:df:27:6b:16:56:b7:dc:ec:d1:55:57:a5:
                    6e:ec:75:25:f5:b7:7b:df:ab:d2:3a:5a:91:98:7d:
                    97:17:0b:13:0a:a7:6b:4a:8b:c1:47:30:fb:3a:f8:
                    41:04:d5:c1:df:b8:1d:bf:7b:01:a5:65:a2:e0:1e:
                    36:b7:a6:5c:cc:30:5a:f8:cd:6f:cd:f1:19:62:25:
                    ca:01:e3:35:7f:fa:20:f5:dc:fd:69:b2:6a:00:7d:
                    17:f7
                Exponent: 65537 (0x10001)
        X509v3 extensions:
            X509v3 Basic Constraints: 
                CA:FALSE
            X509v3 Subject Key Identifier: 
                7D:E4:9C:6B:E6:F9:71:7D:46:D2:12:3D:AD:6B:1D:FD:C2:AA:78:4C
            X509v3 Authority Key Identifier: 
                keyid:B4:5A:E4:A5:B3:DE:D2:52:F6:B9:D5:A6:95:0F:EB:3E:BC:C7:FD:FF

    Signature Algorithm: sha256WithRSAEncryption
        69:ce:f9:a9:d5:e2:32:db:fe:a9:f9:92:7a:d6:76:37:05:51:
        c9:e3:a1:03:72:b2:bc:2c:86:4b:31:16:02:10:e8:43:d4:c0:
        33:3c:4f:ea:9d:12:6b:57:51:bc:d7:d9:42:56:cf:c7:29:e7:
        d7:52:24:49:29:ac:9c:de:8f:cc:ab:1a:a9:62:07:5a:6b:f7:
        fb:19:ab:f5:b1:2c:a4:aa:dc:5d:03:73:17:7c:ea:52:44:80:
        ca:70:d3:10:c5:2e:fd:9f:d2:0d:65:c4:f2:cc:ef:1b:18:e1:
        0a:08:4e:67:d0:56:7f:24:54:2e:73:31:b5:4d:22:74:f8:30:
        f9:92:c4:64:c9:46:80:d4:e1:bd:d6:e7:26:ea:bb:c4:fe:6f:
        a2:c5:10:e4:64:2f:b0:44:04:2c:b3:44:39:cf:b4:de:ac:83:
        43:5e:0b:ca:cd:fb:4e:18:e6:38:39:e7:10:3f:d6:59:17:e7:
        42:ef:00:e3:88:c6:43:bc:21:12:bf:20:a8:64:c6:30:dc:8c:
        6b:b8:6a:ce:6b:8a:22:3b:d8:af:0c:b4:bb:4d:be:96:dd:40:
        d9:87:3e:95:2e:1a:27:23:62:e8:6e:bd:e0:89:d0:a7:28:16:
        95:ea:cb:89:a3:f7:7f:fb:0f:ac:ab:d6:a8:b4:cb:43:92:d9:
        cb:3e:8a:11
-----BEGIN CERTIFICATE-----
MIIDQjCCAiqgAwIBAgIBCTANBgkqhkiG9w0BAQsFADA7MQswCQYDVQQGEwJOTDER
MA8GA1UEChMIUG9sYXJTU0wxGTAXBgNVBAMTEFBvbGFyU1NMIFRlc3QgQ0EwHhcN
MTEwMjEyMTQ0NDA3WhcNMjEwMjEyMTQ0NDA3WjA/MQswCQYDVQQGEwJOTDERMA8G
A1UEChMIUG9sYXJTU0wxHTAbBgNVBAMTFFBvbGFyU1NMIENlcnQgU0hBMjU2MIIB
IjANBgkqhkiG9w0BAQEFAAOCAQ8AMIIBCgKCAQEAuTxKxcijjpAXpJ5SqnF1JmGA
58e1bYz/qrZBJre+Ea1ccxYMZBFIBP/W4TsF24m7s5cJ1RwU3WiHObA9ccvidtAa
2BgtgBtU9uVEmvHLr2Eu30kNnQm37bH9PP08+iTPXb985FPnJbXqRCLpJtPqIJSe
5mFnui4HZwsDL6IJ7fAzjwvOEO9npMYI2sHtwj/XSt0VPfleHIFgRj61sz0vpt5H
HLySruvfJ2sWVrfc7NFVV6Vu7HUl9bd736vSOlqRmH2XFwsTCqdrSovBRzD7OvhB
BNXB37gdv3sBpWWi4B42t6ZczDBa+M1vzfEZYiXKAeM1f/og9dz9abJqAH0X9wID
AQABo00wSzAJBgNVHRMEAjAAMB0GA1UdDgQWBBR95Jxr5vlxfUbSEj2tax39wqp4
TDAfBgNVHSMEGDAWgBS0WuSls97SUva51aaVD+s+vMf9/zANBgkqhkiG9w0BAQsF
AAOCAQEAac75qdXiMtv+qfmSetZ2NwVRyeOhA3KyvCyGSzEWAhDoQ9TAMzxP6p0S
a1dRvNfZQlbPxynn11IkSSmsnN6PzKsaqWIHWmv3+xmr9bEspKrcXQNzF3zqUkSA
ynDTEMUu/Z/SDWXE8szvGxjhCghOZ9BWfyRULnMxtU0idPgw+ZLEZMlGgNThvdbn
Juq7xP5vosUQ5GQvsEQELLNEOc+03qyDQ14Lys37ThjmODnnED/WWRfnQu8A44jG
Q7whEr8gqGTGMNyMa7hqzmuKIjvYrwy0u02+lt1A2Yc+lS4aJyNi6G694InQpygW
lerLiaP3f/sPrKvWqLTLQ5LZyz6KEQ==
-----END CERTIFICATE-----
